; Function Attrs: mustprogress uwtable
define noalias ptr @lean_io_baserecmutex_new(ptr noundef readnone captures(none) %0) local_unnamed_addr #0 {
  %2 = load ptr, ptr @_ZN4leanL29g_baserecmutex_external_classE, align 8, !tbaa !3
  %3 = tail call noalias noundef nonnull dereferenceable(40) ptr @_Znwm(i64 noundef 40) #10
  tail call void @llvm.memset.p0.i64(ptr noundef nonnull align 8 dereferenceable(40) %3, i8 0, i64 40, i1 false)
  %4 = getelementptr inbounds nuw i8, ptr %3, i64 16
  store i32 1, ptr %4, align 8, !tbaa !20
  tail call void @lean_inc_heartbeat()
  %5 = tail call noalias ptr @mi_malloc_small(i64 noundef 24) #11
  %6 = icmp eq ptr %5, null
  br i1 %6, label %7, label %_ZL19lean_alloc_externalP19lean_external_classPv.exit

7:                                                ; preds = %1
  tail call void @lean_internal_panic_out_of_memory() #12
  unreachable

_ZL19lean_alloc_externalP19lean_external_classPv.exit: ; preds = %1
  %8 = getelementptr inbounds nuw i8, ptr %5, i64 4
  store i32 1, ptr %5, align 4, !tbaa !7
  store i32 -33554408, ptr %8, align 4
  %9 = getelementptr inbounds nuw i8, ptr %5, i64 8
  store ptr %2, ptr %9, align 8, !tbaa !10
  %10 = getelementptr inbounds nuw i8, ptr %5, i64 16
  store ptr %3, ptr %10, align 8, !tbaa !12
  tail call void @lean_inc_heartbeat()
  %11 = tail call noalias ptr @mi_malloc_small(i64 noundef 24) #11
  %12 = icmp eq ptr %11, null
  br i1 %12, label %13, label %_ZN4lean15io_result_mk_okEP11lean_object.exit

13:                                               ; preds = %_ZL19lean_alloc_externalP19lean_external_classPv.exit
  tail call void @lean_internal_panic_out_of_memory() #12
  unreachable

_ZN4lean15io_result_mk_okEP11lean_object.exit:    ; preds = %_ZL19lean_alloc_externalP19lean_external_classPv.exit
  %14 = getelementptr inbounds nuw i8, ptr %11, i64 4
  store i32 1, ptr %11, align 4, !tbaa !7
  store i32 131096, ptr %14, align 4
  %15 = getelementptr inbounds nuw i8, ptr %11, i64 8
  store ptr %5, ptr %15, align 8, !tbaa !3
  %16 = getelementptr inbounds nuw i8, ptr %11, i64 16
  store ptr inttoptr (i64 1 to ptr), ptr %16, align 8, !tbaa !3
  ret ptr %11
}